; Function Attrs: mustprogress nofree norecurse nosync nounwind willreturn memory(read, inaccessiblemem: none) uwtable
define noundef signext range(i8 0, 2) i8 @_ZN6icu_7714MessagePattern8isPluralEi(ptr noundef nonnull readonly align 8 captures(none) dereferenceable(127) %0, i32 noundef %1) local_unnamed_addr #8 align 2 {
  %3 = getelementptr inbounds nuw i8, ptr %0, i64 24
  %4 = load i16, ptr %3, align 8, !tbaa !19
  %5 = icmp slt i16 %4, 0
  %6 = ashr i16 %4, 5
  %7 = sext i16 %6 to i32
  %8 = getelementptr inbounds nuw i8, ptr %0, i64 28
  %9 = load i32, ptr %8, align 4
  %10 = select i1 %5, i32 %9, i32 %7
  %11 = icmp ult i32 %1, %10
  br i1 %11, label %_ZNK6icu_7713UnicodeString6charAtEi.exit, label %_ZNK6icu_7713UnicodeString6charAtEi.exit.thread

_ZNK6icu_7713UnicodeString6charAtEi.exit:         ; preds = %2
  %12 = and i16 %4, 2
  %.not.i.i.i = icmp eq i16 %12, 0
  %13 = getelementptr inbounds nuw i8, ptr %0, i64 26
  %14 = getelementptr inbounds nuw i8, ptr %0, i64 40
  %15 = load ptr, ptr %14, align 8
  %16 = select i1 %.not.i.i.i, ptr %15, ptr %13
  %17 = sext i32 %1 to i64
  %18 = getelementptr inbounds i16, ptr %16, i64 %17
  %19 = load i16, ptr %18, align 2, !tbaa !30
  %20 = and i16 %19, -33
  %or.cond = icmp eq i16 %20, 80
  br i1 %or.cond, label %21, label %_ZNK6icu_7713UnicodeString6charAtEi.exit.thread

21:                                               ; preds = %_ZNK6icu_7713UnicodeString6charAtEi.exit
  %22 = add nuw nsw i32 %1, 1
  %23 = icmp ult i32 %22, %10
  br i1 %23, label %_ZNK6icu_7713UnicodeString6charAtEi.exit28, label %_ZNK6icu_7713UnicodeString6charAtEi.exit.thread

_ZNK6icu_7713UnicodeString6charAtEi.exit28:       ; preds = %21
  %24 = sext i32 %22 to i64
  %25 = getelementptr inbounds i16, ptr %16, i64 %24
  %26 = load i16, ptr %25, align 2, !tbaa !30
  %27 = and i16 %26, -33
  %or.cond5 = icmp eq i16 %27, 76
  br i1 %or.cond5, label %28, label %_ZNK6icu_7713UnicodeString6charAtEi.exit.thread

28:                                               ; preds = %_ZNK6icu_7713UnicodeString6charAtEi.exit28
  %29 = add nuw nsw i32 %1, 2
  %30 = icmp ult i32 %29, %10
  br i1 %30, label %_ZNK6icu_7713UnicodeString6charAtEi.exit31, label %_ZNK6icu_7713UnicodeString6charAtEi.exit.thread

_ZNK6icu_7713UnicodeString6charAtEi.exit31:       ; preds = %28
  %31 = sext i32 %29 to i64
  %32 = getelementptr inbounds i16, ptr %16, i64 %31
  %33 = load i16, ptr %32, align 2, !tbaa !30
  %34 = and i16 %33, -33
  %or.cond8 = icmp eq i16 %34, 85
  br i1 %or.cond8, label %35, label %_ZNK6icu_7713UnicodeString6charAtEi.exit.thread

35:                                               ; preds = %_ZNK6icu_7713UnicodeString6charAtEi.exit31
  %36 = add nuw nsw i32 %1, 3
  %37 = icmp ult i32 %36, %10
  br i1 %37, label %_ZNK6icu_7713UnicodeString6charAtEi.exit34, label %_ZNK6icu_7713UnicodeString6charAtEi.exit.thread

_ZNK6icu_7713UnicodeString6charAtEi.exit34:       ; preds = %35
  %38 = sext i32 %36 to i64
  %39 = getelementptr inbounds i16, ptr %16, i64 %38
  %40 = load i16, ptr %39, align 2, !tbaa !30
  %41 = and i16 %40, -33
  %or.cond11 = icmp eq i16 %41, 82
  br i1 %or.cond11, label %42, label %_ZNK6icu_7713UnicodeString6charAtEi.exit.thread

42:                                               ; preds = %_ZNK6icu_7713UnicodeString6charAtEi.exit34
  %43 = add nuw nsw i32 %1, 4
  %44 = icmp ult i32 %43, %10
  br i1 %44, label %_ZNK6icu_7713UnicodeString6charAtEi.exit37, label %_ZNK6icu_7713UnicodeString6charAtEi.exit.thread

_ZNK6icu_7713UnicodeString6charAtEi.exit37:       ; preds = %42
  %45 = sext i32 %43 to i64
  %46 = getelementptr inbounds i16, ptr %16, i64 %45
  %47 = load i16, ptr %46, align 2, !tbaa !30
  %48 = and i16 %47, -33
  %or.cond14 = icmp eq i16 %48, 65
  br i1 %or.cond14, label %49, label %_ZNK6icu_7713UnicodeString6charAtEi.exit.thread

49:                                               ; preds = %_ZNK6icu_7713UnicodeString6charAtEi.exit37
  %50 = add nuw nsw i32 %1, 5
  %51 = icmp ult i32 %50, %10
  br i1 %51, label %52, label %_ZNK6icu_7713UnicodeString6charAtEi.exit.thread

52:                                               ; preds = %49
  %53 = sext i32 %50 to i64
  %54 = getelementptr inbounds i16, ptr %16, i64 %53
  %55 = load i16, ptr %54, align 2, !tbaa !30
  %56 = and i16 %55, -33
  %57 = icmp eq i16 %56, 76
  %58 = zext i1 %57 to i8
  br label %_ZNK6icu_7713UnicodeString6charAtEi.exit.thread

_ZNK6icu_7713UnicodeString6charAtEi.exit.thread:  ; preds = %52, %49, %42, %35, %28, %21, %2, %_ZNK6icu_7713UnicodeString6charAtEi.exit37, %_ZNK6icu_7713UnicodeString6charAtEi.exit34, %_ZNK6icu_7713UnicodeString6charAtEi.exit31, %_ZNK6icu_7713UnicodeString6charAtEi.exit28, %_ZNK6icu_7713UnicodeString6charAtEi.exit
  %59 = phi i8 [ 0, %_ZNK6icu_7713UnicodeString6charAtEi.exit ], [ 0, %_ZNK6icu_7713UnicodeString6charAtEi.exit28 ], [ 0, %_ZNK6icu_7713UnicodeString6charAtEi.exit31 ], [ 0, %_ZNK6icu_7713UnicodeString6charAtEi.exit34 ], [ 0, %_ZNK6icu_7713UnicodeString6charAtEi.exit37 ], [ 0, %2 ], [ 0, %21 ], [ 0, %28 ], [ 0, %35 ], [ 0, %42 ], [ %58, %52 ], [ 0, %49 ]
  ret i8 %59
}